target datalayout = "e-m:e-p270:32:32-p271:32:32-p272:64:64-i64:64-i128:128-f80:128-n8:16:32:64-S128"
target triple = "x86_64-pc-linux-gnu"

%struct.rtt_unack = type { ptr, double, i32, i32 }

; Function Attrs: nounwind null_pointer_is_valid sspstrong uwtable
define hidden void @rtt_put_unack_on_list(ptr noundef %0, ptr noundef %1) #10 {
  %3 = alloca ptr, align 8
  %4 = alloca ptr, align 8
  %5 = alloca ptr, align 8
  %6 = alloca ptr, align 8
  store ptr %0, ptr %3, align 8
  store ptr %1, ptr %4, align 8
  call void @llvm.lifetime.start.p0(i64 8, ptr %5) #17
  call void @llvm.lifetime.start.p0(i64 8, ptr %6) #17
  %7 = load ptr, ptr %3, align 8
  %8 = load ptr, ptr %7, align 8
  store ptr %8, ptr %6, align 8
  %9 = load ptr, ptr %6, align 8
  store ptr %9, ptr %5, align 8
  br label %10

10:                                               ; preds = %20, %2
  %11 = load ptr, ptr %5, align 8
  %12 = icmp ne ptr %11, null
  br i1 %12, label %13, label %24

13:                                               ; preds = %10
  %14 = load ptr, ptr %5, align 8
  %15 = getelementptr inbounds nuw %struct.rtt_unack, ptr %14, i32 0, i32 0
  %16 = load ptr, ptr %15, align 8
  %17 = icmp ne ptr %16, null
  br i1 %17, label %19, label %18

18:                                               ; preds = %13
  br label %24

19:                                               ; preds = %13
  br label %20

20:                                               ; preds = %19
  %21 = load ptr, ptr %5, align 8
  %22 = getelementptr inbounds nuw %struct.rtt_unack, ptr %21, i32 0, i32 0
  %23 = load ptr, ptr %22, align 8
  store ptr %23, ptr %5, align 8
  br label %10, !llvm.loop !15

24:                                               ; preds = %18, %10
  %25 = load ptr, ptr %5, align 8
  %26 = icmp ne ptr %25, null
  br i1 %26, label %27, label %31

27:                                               ; preds = %24
  %28 = load ptr, ptr %4, align 8
  %29 = load ptr, ptr %5, align 8
  %30 = getelementptr inbounds nuw %struct.rtt_unack, ptr %29, i32 0, i32 0
  store ptr %28, ptr %30, align 8
  br label %34

31:                                               ; preds = %24
  %32 = load ptr, ptr %4, align 8
  %33 = load ptr, ptr %3, align 8
  store ptr %32, ptr %33, align 8
  br label %34

34:                                               ; preds = %31, %27
  call void @llvm.lifetime.end.p0(i64 8, ptr %6) #17
  call void @llvm.lifetime.end.p0(i64 8, ptr %5) #17
  ret void
}