; Function Attrs: nofree norecurse nosync nounwind null_pointer_is_valid sspstrong memory(readwrite, inaccessiblemem: none) uwtable
define hidden void @rtt_put_unack_on_list(ptr noundef captures(none) %0, ptr noundef %1) local_unnamed_addr #10 {
  %3 = load ptr, ptr %0, align 8
  br label %4

4:                                                ; preds = %5, %2
  %.0 = phi ptr [ %3, %2 ], [ %6, %5 ]
  %.not = icmp eq ptr %.0, null
  br i1 %.not, label %.critedge, label %5

5:                                                ; preds = %4
  %6 = load ptr, ptr %.0, align 8
  %.not11 = icmp eq ptr %6, null
  br i1 %.not11, label %.critedge, label %4, !llvm.loop !15

.critedge:                                        ; preds = %4, %5
  %.sink = phi ptr [ %.0, %5 ], [ %0, %4 ]
  store ptr %1, ptr %.sink, align 8
  ret void
}